; Function Attrs: mustprogress uwtable
define hidden void @_ZN4cvc58internal6theory11quantifiers16SygusGrammarNormC2ERNS0_3EnvEPNS2_11TermDbSygusE(ptr noundef nonnull align 8 dereferenceable(152) %this, ptr noundef nonnull align 8 dereferenceable(576) %env, ptr noundef %tds) unnamed_addr #3 align 2 personality ptr @__gxx_personality_v0 {
entry:
  tail call void @_ZN4cvc58internal6EnvObjC2ERNS0_3EnvE(ptr noundef nonnull align 8 dereferenceable(16) %this, ptr noundef nonnull align 8 dereferenceable(576) %env)
  store ptr getelementptr inbounds ({ [4 x ptr] }, ptr @_ZTVN4cvc58internal6theory11quantifiers16SygusGrammarNormE, i64 0, i32 0, i64 2), ptr %this, align 8
  %d_tds = getelementptr inbounds i8, ptr %this, i64 16
  store ptr %tds, ptr %d_tds, align 8
  %0 = load atomic i8, ptr @_ZGVZN4cvc58internal4expr9NodeValue4nullEvE6s_null acquire, align 8
  %guard.uninitialized.i.i = icmp eq i8 %0, 0
  br i1 %guard.uninitialized.i.i, label %init.check.i.i, label %invoke.cont, !prof !4

init.check.i.i:                                   ; preds = %entry
  %1 = tail call i32 @__cxa_guard_acquire(ptr nonnull @_ZGVZN4cvc58internal4expr9NodeValue4nullEvE6s_null) #16
  %tobool.not.i.i = icmp eq i32 %1, 0
  br i1 %tobool.not.i.i, label %invoke.cont, label %init.i.i

init.i.i:                                         ; preds = %init.check.i.i
  %call.i.i = invoke noalias noundef nonnull dereferenceable(16) ptr @_Znwm(i64 noundef 16) #17
          to label %invoke.cont.i.i unwind label %lpad.i.i

invoke.cont.i.i:                                  ; preds = %init.i.i
  store i64 1152920405095219200, ptr %call.i.i, align 8
  %d_kind.i.i.i = getelementptr inbounds i8, ptr %call.i.i, i64 8
  store i16 0, ptr %d_kind.i.i.i, align 8
  %d_nchildren.i.i.i = getelementptr inbounds i8, ptr %call.i.i, i64 12
  store i32 0, ptr %d_nchildren.i.i.i, align 4
  store ptr %call.i.i, ptr @_ZZN4cvc58internal4expr9NodeValue4nullEvE6s_null, align 8
  tail call void @__cxa_guard_release(ptr nonnull @_ZGVZN4cvc58internal4expr9NodeValue4nullEvE6s_null) #16
  br label %invoke.cont

lpad.i.i:                                         ; preds = %init.i.i
  %2 = landingpad { ptr, i32 }
          cleanup
  tail call void @__cxa_guard_abort(ptr nonnull @_ZGVZN4cvc58internal4expr9NodeValue4nullEvE6s_null) #16
  resume { ptr, i32 } %2

invoke.cont:                                      ; preds = %invoke.cont.i.i, %init.check.i.i, %entry
  %d_sygus_vars = getelementptr inbounds i8, ptr %this, i64 24
  %3 = load ptr, ptr @_ZZN4cvc58internal4expr9NodeValue4nullEvE6s_null, align 8
  store ptr %3, ptr %d_sygus_vars, align 8
  %d_dt_all = getelementptr inbounds i8, ptr %this, i64 32
  tail call void @llvm.memset.p0.i64(ptr noundef nonnull align 8 dereferenceable(24) %d_dt_all, i8 0, i64 24, i1 false)
  %4 = getelementptr inbounds i8, ptr %this, i64 64
  store i32 0, ptr %4, align 8
  %_M_parent.i.i.i.i.i = getelementptr inbounds i8, ptr %this, i64 72
  store ptr null, ptr %_M_parent.i.i.i.i.i, align 8
  %_M_left.i.i.i.i.i = getelementptr inbounds i8, ptr %this, i64 80
  store ptr %4, ptr %_M_left.i.i.i.i.i, align 8
  %_M_right.i.i.i.i.i = getelementptr inbounds i8, ptr %this, i64 88
  store ptr %4, ptr %_M_right.i.i.i.i.i, align 8
  %_M_node_count.i.i.i.i.i = getelementptr inbounds i8, ptr %this, i64 96
  store i64 0, ptr %_M_node_count.i.i.i.i.i, align 8
  %5 = getelementptr inbounds i8, ptr %this, i64 112
  store i32 0, ptr %5, align 8
  %_M_parent.i.i.i.i.i1 = getelementptr inbounds i8, ptr %this, i64 120
  store ptr null, ptr %_M_parent.i.i.i.i.i1, align 8
  %_M_left.i.i.i.i.i2 = getelementptr inbounds i8, ptr %this, i64 128
  store ptr %5, ptr %_M_left.i.i.i.i.i2, align 8
  %_M_right.i.i.i.i.i3 = getelementptr inbounds i8, ptr %this, i64 136
  store ptr %5, ptr %_M_right.i.i.i.i.i3, align 8
  %_M_node_count.i.i.i.i.i4 = getelementptr inbounds i8, ptr %this, i64 144
  store i64 0, ptr %_M_node_count.i.i.i.i.i4, align 8
  ret void
}